; Function Attrs: nounwind uwtable
define ptr @l_List_mapTR_loop___at_Std_Tactic_BVDecide_LRAT_check___spec__1(ptr readnone captures(none) %0, ptr noundef %1, ptr noundef %2, ptr noundef %3) local_unnamed_addr #0 {
  br label %5

5:                                                ; preds = %.backedge, %4
  %.029 = phi ptr [ %3, %4 ], [ %.029.be, %.backedge ]
  %.0 = phi ptr [ %2, %4 ], [ %22, %.backedge ]
  %6 = ptrtoint ptr %.0 to i64
  %7 = and i64 %6, 1
  %.not.i32 = icmp eq i64 %7, 0
  br i1 %.not.i32, label %11, label %8

8:                                                ; preds = %5
  %9 = lshr i64 %6, 1
  %10 = trunc i64 %9 to i32
  br label %lean_obj_tag.exit

11:                                               ; preds = %5
  %12 = getelementptr i8, ptr %.0, i64 4
  %.val.i = load i32, ptr %12, align 4
  %13 = lshr i32 %.val.i, 24
  br label %lean_obj_tag.exit

lean_obj_tag.exit:                                ; preds = %8, %11
  %.0.i = phi i32 [ %10, %8 ], [ %13, %11 ]
  %14 = icmp eq i32 %.0.i, 0
  br i1 %14, label %15, label %17

15:                                               ; preds = %lean_obj_tag.exit
  %16 = tail call ptr @l_List_reverse___rarg(ptr noundef %.029) #4
  ret ptr %16

17:                                               ; preds = %lean_obj_tag.exit
  %.0.val = load i32, ptr %.0, align 4, !tbaa !4
  %18 = icmp eq i32 %.0.val, 1
  %19 = getelementptr inbounds nuw i8, ptr %.0, i64 8
  %20 = load ptr, ptr %19, align 8, !tbaa !9
  %21 = getelementptr inbounds nuw i8, ptr %.0, i64 16
  %22 = load ptr, ptr %21, align 8, !tbaa !9
  br i1 %18, label %23, label %25

23:                                               ; preds = %17
  %24 = tail call ptr @l_Std_Tactic_BVDecide_LRAT_Internal_intActionToDefaultClauseAction(ptr noundef %1, ptr noundef %20) #4
  store ptr %.029, ptr %21, align 8, !tbaa !9
  store ptr %24, ptr %19, align 8, !tbaa !9
  br label %.backedge

25:                                               ; preds = %17
  %26 = ptrtoint ptr %22 to i64
  %27 = and i64 %26, 1
  %.not = icmp eq i64 %27, 0
  br i1 %.not, label %28, label %lean_inc.exit

28:                                               ; preds = %25
  %.val.i33 = load i32, ptr %22, align 4, !tbaa !4
  %29 = icmp sgt i32 %.val.i33, 0
  br i1 %29, label %30, label %32, !prof !11

30:                                               ; preds = %28
  %31 = add nuw i32 %.val.i33, 1
  store i32 %31, ptr %22, align 4, !tbaa !4
  br label %lean_inc.exit

32:                                               ; preds = %28
  %.not.i34 = icmp eq i32 %.val.i33, 0
  br i1 %.not.i34, label %lean_inc.exit, label %33

33:                                               ; preds = %32
  tail call void @lean_inc_ref_cold(ptr noundef nonnull %22) #4
  br label %lean_inc.exit

lean_inc.exit:                                    ; preds = %33, %32, %30, %25
  %34 = ptrtoint ptr %20 to i64
  %35 = and i64 %34, 1
  %.not38 = icmp eq i64 %35, 0
  br i1 %.not38, label %36, label %lean_inc.exit31

36:                                               ; preds = %lean_inc.exit
  %.val.i35 = load i32, ptr %20, align 4, !tbaa !4
  %37 = icmp sgt i32 %.val.i35, 0
  br i1 %37, label %38, label %40, !prof !11

38:                                               ; preds = %36
  %39 = add nuw i32 %.val.i35, 1
  store i32 %39, ptr %20, align 4, !tbaa !4
  br label %lean_inc.exit31

40:                                               ; preds = %36
  %.not.i36 = icmp eq i32 %.val.i35, 0
  br i1 %.not.i36, label %lean_inc.exit31, label %41

41:                                               ; preds = %40
  tail call void @lean_inc_ref_cold(ptr noundef nonnull %20) #4
  br label %lean_inc.exit31

lean_inc.exit31:                                  ; preds = %41, %40, %38, %lean_inc.exit
  br i1 %.not.i32, label %42, label %lean_dec.exit

42:                                               ; preds = %lean_inc.exit31
  %43 = load i32, ptr %.0, align 4, !tbaa !4
  %44 = icmp sgt i32 %43, 1
  br i1 %44, label %45, label %47, !prof !11

45:                                               ; preds = %42
  %46 = add nsw i32 %43, -1
  store i32 %46, ptr %.0, align 4, !tbaa !4
  br label %lean_dec.exit

47:                                               ; preds = %42
  %.not.i = icmp eq i32 %43, 0
  br i1 %.not.i, label %lean_dec.exit, label %48

48:                                               ; preds = %47
  tail call void @lean_dec_ref_cold(ptr noundef nonnull %.0) #4
  br label %lean_dec.exit

lean_dec.exit:                                    ; preds = %48, %47, %45, %lean_inc.exit31
  %49 = tail call ptr @l_Std_Tactic_BVDecide_LRAT_Internal_intActionToDefaultClauseAction(ptr noundef %1, ptr noundef %20) #4
  tail call void @lean_inc_heartbeat() #4
  %50 = tail call noalias ptr @mi_malloc_small(i64 noundef 24) #4
  %51 = icmp eq ptr %50, null
  br i1 %51, label %52, label %lean_alloc_ctor.exit

52:                                               ; preds = %lean_dec.exit
  tail call void @lean_internal_panic_out_of_memory() #5
  unreachable

lean_alloc_ctor.exit:                             ; preds = %lean_dec.exit
  %53 = getelementptr inbounds nuw i8, ptr %50, i64 4
  store i32 1, ptr %50, align 4, !tbaa !4
  store i32 16908312, ptr %53, align 4
  %54 = getelementptr inbounds nuw i8, ptr %50, i64 8
  store ptr %49, ptr %54, align 8, !tbaa !9
  %55 = getelementptr inbounds nuw i8, ptr %50, i64 16
  store ptr %.029, ptr %55, align 8, !tbaa !9
  br label %.backedge

.backedge:                                        ; preds = %lean_alloc_ctor.exit, %23
  %.029.be = phi ptr [ %.0, %23 ], [ %50, %lean_alloc_ctor.exit ]
  br label %5
}